; Function Attrs: mustprogress uwtable
define noundef double @_ZN5Ipopt25IpoptCalculatedQuantities16unscaled_trial_fEv(ptr noundef nonnull align 8 dereferenceable(2185) %0) unnamed_addr #6 align 2 personality ptr @__gxx_personality_v0 {
  %2 = alloca double, align 8
  %3 = getelementptr inbounds nuw i8, ptr %0, i64 16
  %4 = load ptr, ptr %3, align 8, !tbaa !21
  %5 = getelementptr inbounds nuw i8, ptr %4, i64 16
  %6 = load ptr, ptr %5, align 8, !tbaa !426, !noalias !443
  %.not.i.i.i.i = icmp eq ptr %6, null
  br i1 %.not.i.i.i.i, label %_ZNK5Ipopt8IpoptNLP11NLP_scalingEv.exit, label %7

7:                                                ; preds = %1
  %8 = getelementptr inbounds nuw i8, ptr %6, i64 8
  %9 = load i32, ptr %8, align 8, !tbaa !13, !noalias !443
  %10 = add nsw i32 %9, 1
  store i32 %10, ptr %8, align 8, !tbaa !13, !noalias !443
  br label %_ZNK5Ipopt8IpoptNLP11NLP_scalingEv.exit

_ZNK5Ipopt8IpoptNLP11NLP_scalingEv.exit:          ; preds = %1, %7
  call void @llvm.lifetime.start.p0(i64 8, ptr nonnull %2) #26
  %11 = load ptr, ptr %0, align 8, !tbaa !16
  %12 = getelementptr inbounds nuw i8, ptr %11, i64 32
  %13 = load ptr, ptr %12, align 8
  %14 = invoke noundef double %13(ptr noundef nonnull align 8 dereferenceable(2185) %0)
          to label %15 unwind label %30

15:                                               ; preds = %_ZNK5Ipopt8IpoptNLP11NLP_scalingEv.exit
  store double %14, ptr %2, align 8, !tbaa !396
  %16 = load ptr, ptr %6, align 8, !tbaa !16
  %17 = getelementptr inbounds nuw i8, ptr %16, i64 24
  %18 = load ptr, ptr %17, align 8
  %19 = invoke noundef double %18(ptr noundef nonnull align 8 dereferenceable(24) %6, ptr noundef nonnull align 8 dereferenceable(8) %2)
          to label %21 unwind label %.thread

.thread:                                          ; preds = %15
  %20 = landingpad { ptr, i32 }
          cleanup
  call void @llvm.lifetime.end.p0(i64 8, ptr nonnull %2) #26
  br label %32

21:                                               ; preds = %15
  call void @llvm.lifetime.end.p0(i64 8, ptr nonnull %2) #26
  %22 = getelementptr inbounds nuw i8, ptr %6, i64 8
  %23 = load i32, ptr %22, align 8, !tbaa !13
  %24 = add nsw i32 %23, -1
  store i32 %24, ptr %22, align 8, !tbaa !13
  %25 = icmp eq i32 %24, 0
  br i1 %25, label %26, label %_ZN5Ipopt8SmartPtrINS_16NLPScalingObjectEED2Ev.exit

26:                                               ; preds = %21
  %27 = load ptr, ptr %6, align 8, !tbaa !16
  %28 = getelementptr inbounds nuw i8, ptr %27, i64 8
  %29 = load ptr, ptr %28, align 8
  call void %29(ptr noundef nonnull align 8 dereferenceable(24) %6) #26
  br label %_ZN5Ipopt8SmartPtrINS_16NLPScalingObjectEED2Ev.exit

_ZN5Ipopt8SmartPtrINS_16NLPScalingObjectEED2Ev.exit: ; preds = %21, %26
  ret double %19

30:                                               ; preds = %_ZNK5Ipopt8IpoptNLP11NLP_scalingEv.exit
  %31 = landingpad { ptr, i32 }
          cleanup
  call void @llvm.lifetime.end.p0(i64 8, ptr nonnull %2) #26
  br i1 %.not.i.i.i.i, label %_ZN5Ipopt8SmartPtrINS_16NLPScalingObjectEED2Ev.exit3, label %32

32:                                               ; preds = %.thread, %30
  %33 = phi { ptr, i32 } [ %20, %.thread ], [ %31, %30 ]
  %34 = getelementptr inbounds nuw i8, ptr %6, i64 8
  %35 = load i32, ptr %34, align 8, !tbaa !13
  %36 = add nsw i32 %35, -1
  store i32 %36, ptr %34, align 8, !tbaa !13
  %37 = icmp eq i32 %36, 0
  br i1 %37, label %38, label %_ZN5Ipopt8SmartPtrINS_16NLPScalingObjectEED2Ev.exit3

38:                                               ; preds = %32
  %39 = load ptr, ptr %6, align 8, !tbaa !16
  %40 = getelementptr inbounds nuw i8, ptr %39, i64 8
  %41 = load ptr, ptr %40, align 8
  call void %41(ptr noundef nonnull align 8 dereferenceable(24) %6) #26
  br label %_ZN5Ipopt8SmartPtrINS_16NLPScalingObjectEED2Ev.exit3

_ZN5Ipopt8SmartPtrINS_16NLPScalingObjectEED2Ev.exit3: ; preds = %30, %32, %38
  %42 = phi { ptr, i32 } [ %31, %30 ], [ %33, %32 ], [ %33, %38 ]
  resume { ptr, i32 } %42
}